target datalayout = "e-m:e-p270:32:32-p271:32:32-p272:64:64-i64:64-i128:128-f80:128-n8:16:32:64-S128"
target triple = "x86_64-pc-linux-gnu"

%struct.rb_data_type_struct = type { ptr, %struct.anon, ptr, ptr, i64 }
%struct.anon = type { ptr, ptr, ptr, ptr, [1 x ptr] }
%struct.strscanner = type { i64, i64, i64, i64, %struct.re_registers, i64, i8 }
%struct.re_registers = type { i32, i32, ptr, ptr }
%struct.RString = type { %struct.RBasic, i64, %union.anon }
%struct.RBasic = type { i64, i64 }
%union.anon = type { %struct.anon.0 }
%struct.anon.0 = type { ptr, %union.anon.1 }
%union.anon.1 = type { i64 }
%struct.anon.2 = type { [1 x i8] }

@strscanner_type = internal constant %struct.rb_data_type_struct { ptr @.str.2, %struct.anon { ptr @strscan_mark, ptr @strscan_free, ptr @strscan_memsize, ptr null, [1 x ptr] zeroinitializer }, ptr null, ptr null, i64 1 }, align 8
@rb_eArgError = external global i64, align 8
@.str.66 = private unnamed_addr constant [35 x i8] c"uninitialized StringScanner object\00", align 1

; Function Attrs: inlinehint nounwind sspstrong willreturn memory(read) uwtable
define internal i64 @RB_FL_TEST_RAW(i64 noundef %0, i64 noundef %1) #11 {
  %3 = alloca i64, align 8
  %4 = alloca i64, align 8
  store i64 %0, ptr %3, align 8, !tbaa !6
  store i64 %1, ptr %4, align 8, !tbaa !6
  %5 = load i64, ptr %3, align 8, !tbaa !6
  %6 = inttoptr i64 %5 to ptr
  %7 = getelementptr inbounds nuw %struct.RBasic, ptr %6, i32 0, i32 0
  %8 = load i64, ptr %7, align 8, !tbaa !61
  %9 = load i64, ptr %4, align 8, !tbaa !6
  %10 = and i64 %8, %9
  ret i64 %10
}

; Function Attrs: inlinehint nounwind sspstrong willreturn memory(read) uwtable
define internal zeroext i1 @RB_FL_ANY_RAW(i64 noundef %0, i64 noundef %1) #11 {
  %3 = alloca i64, align 8
  %4 = alloca i64, align 8
  store i64 %0, ptr %3, align 8, !tbaa !6
  store i64 %1, ptr %4, align 8, !tbaa !6
  %5 = load i64, ptr %3, align 8, !tbaa !6
  %6 = load i64, ptr %4, align 8, !tbaa !6
  %7 = call i64 @RB_FL_TEST_RAW(i64 noundef %5, i64 noundef %6) #28
  %8 = icmp ne i64 %7, 0
  ret i1 %8
}

; Function Attrs: nounwind sspstrong uwtable
define internal i64 @str_new(ptr noundef %0, ptr noundef %1, i64 noundef %2) #0 {
  %4 = alloca ptr, align 8
  %5 = alloca ptr, align 8
  %6 = alloca i64, align 8
  %7 = alloca i64, align 8
  store ptr %0, ptr %4, align 8, !tbaa !15
  store ptr %1, ptr %5, align 8, !tbaa !12
  store i64 %2, ptr %6, align 8, !tbaa !6
  call void @llvm.lifetime.start.p0(i64 8, ptr %7) #23
  br i1 false, label %8, label %11

8:                                                ; preds = %3
  %9 = load i64, ptr %6, align 8, !tbaa !6
  %10 = call i1 @llvm.is.constant.i64(i64 %9)
  br label %11

11:                                               ; preds = %8, %3
  %12 = phi i1 [ false, %3 ], [ %10, %8 ]
  %13 = select i1 %12, ptr @rb_str_new_static, ptr @rb_str_new
  %14 = load ptr, ptr %5, align 8, !tbaa !12
  %15 = load i64, ptr %6, align 8, !tbaa !6
  %16 = call i64 %13(ptr noundef %14, i64 noundef %15)
  store i64 %16, ptr %7, align 8, !tbaa !6
  %17 = load i64, ptr %7, align 8, !tbaa !6
  %18 = load ptr, ptr %4, align 8, !tbaa !15
  %19 = getelementptr inbounds nuw %struct.strscanner, ptr %18, i32 0, i32 1
  %20 = load i64, ptr %19, align 8, !tbaa !22
  call void @rb_enc_copy(i64 noundef %17, i64 noundef %20)
  %21 = load i64, ptr %7, align 8, !tbaa !6
  call void @llvm.lifetime.end.p0(i64 8, ptr %7) #23
  ret i64 %21
}

; Function Attrs: inlinehint nounwind sspstrong willreturn memory(read, argmem: readwrite) uwtable
define internal void @rbimpl_rstring_getmem(ptr dead_on_unwind noalias writable sret(%struct.RString) align 8 %0, i64 noundef %1) #13 {
  %3 = alloca i64, align 8
  store i64 %1, ptr %3, align 8, !tbaa !6
  %4 = load i64, ptr %3, align 8, !tbaa !6
  %5 = call zeroext i1 @RB_FL_ANY_RAW(i64 noundef %4, i64 noundef 8192) #28
  br i1 %5, label %6, label %9

6:                                                ; preds = %2
  %7 = load i64, ptr %3, align 8, !tbaa !6
  %8 = inttoptr i64 %7 to ptr
  call void @llvm.memcpy.p0.p0.i64(ptr align 8 %0, ptr align 8 %8, i64 40, i1 false), !tbaa.struct !62
  br label %20

9:                                                ; preds = %2
  %10 = load i64, ptr %3, align 8, !tbaa !6
  %11 = call i64 @RSTRING_LEN(i64 noundef %10) #28
  %12 = getelementptr inbounds nuw %struct.RString, ptr %0, i32 0, i32 1
  store i64 %11, ptr %12, align 8, !tbaa !35
  %13 = load i64, ptr %3, align 8, !tbaa !6
  %14 = inttoptr i64 %13 to ptr
  %15 = getelementptr inbounds nuw %struct.RString, ptr %14, i32 0, i32 2
  %16 = getelementptr inbounds nuw %struct.anon.2, ptr %15, i32 0, i32 0
  %17 = getelementptr inbounds [1 x i8], ptr %16, i64 0, i64 0
  %18 = getelementptr inbounds nuw %struct.RString, ptr %0, i32 0, i32 2
  %19 = getelementptr inbounds nuw %struct.anon.0, ptr %18, i32 0, i32 0
  store ptr %17, ptr %19, align 8, !tbaa !31
  br label %20

20:                                               ; preds = %9, %6
  ret void
}

; Function Attrs: nounwind sspstrong uwtable
define internal i64 @extract_range(ptr noundef %0, i64 noundef %1, i64 noundef %2) #0 {
  %4 = alloca i64, align 8
  %5 = alloca ptr, align 8
  %6 = alloca i64, align 8
  %7 = alloca i64, align 8
  store ptr %0, ptr %5, align 8, !tbaa !15
  store i64 %1, ptr %6, align 8, !tbaa !6
  store i64 %2, ptr %7, align 8, !tbaa !6
  %8 = load i64, ptr %6, align 8, !tbaa !6
  %9 = load ptr, ptr %5, align 8, !tbaa !15
  %10 = getelementptr inbounds nuw %struct.strscanner, ptr %9, i32 0, i32 1
  %11 = load i64, ptr %10, align 8, !tbaa !22
  %12 = call i64 @RSTRING_LEN(i64 noundef %11) #28
  %13 = icmp sgt i64 %8, %12
  br i1 %13, label %14, label %15

14:                                               ; preds = %3
  store i64 4, ptr %4, align 8
  br label %33

15:                                               ; preds = %3
  %16 = load i64, ptr %7, align 8, !tbaa !6
  %17 = load ptr, ptr %5, align 8, !tbaa !15
  %18 = getelementptr inbounds nuw %struct.strscanner, ptr %17, i32 0, i32 1
  %19 = load i64, ptr %18, align 8, !tbaa !22
  %20 = call i64 @RSTRING_LEN(i64 noundef %19) #28
  %21 = call i64 @minl(i64 noundef %16, i64 noundef %20)
  store i64 %21, ptr %7, align 8, !tbaa !6
  %22 = load ptr, ptr %5, align 8, !tbaa !15
  %23 = load ptr, ptr %5, align 8, !tbaa !15
  %24 = getelementptr inbounds nuw %struct.strscanner, ptr %23, i32 0, i32 1
  %25 = load i64, ptr %24, align 8, !tbaa !22
  %26 = call ptr @RSTRING_PTR(i64 noundef %25)
  %27 = load i64, ptr %6, align 8, !tbaa !6
  %28 = getelementptr inbounds i8, ptr %26, i64 %27
  %29 = load i64, ptr %7, align 8, !tbaa !6
  %30 = load i64, ptr %6, align 8, !tbaa !6
  %31 = sub nsw i64 %29, %30
  %32 = call i64 @str_new(ptr noundef %22, ptr noundef %28, i64 noundef %31)
  store i64 %32, ptr %4, align 8
  br label %33

33:                                               ; preds = %15, %14
  %34 = load i64, ptr %4, align 8
  ret i64 %34
}

; Function Attrs: inlinehint nounwind sspstrong uwtable
define internal i64 @adjust_register_position(ptr noundef %0, i64 noundef %1) #4 {
  %3 = alloca i64, align 8
  %4 = alloca ptr, align 8
  %5 = alloca i64, align 8
  store ptr %0, ptr %4, align 8, !tbaa !15
  store i64 %1, ptr %5, align 8, !tbaa !6
  %6 = load ptr, ptr %4, align 8, !tbaa !15
  %7 = getelementptr inbounds nuw %struct.strscanner, ptr %6, i32 0, i32 6
  %8 = load i8, ptr %7, align 8, !tbaa !25, !range !41, !noundef !42
  %9 = trunc i8 %8 to i1
  br i1 %9, label %10, label %12

10:                                               ; preds = %2
  %11 = load i64, ptr %5, align 8, !tbaa !6
  store i64 %11, ptr %3, align 8
  br label %18

12:                                               ; preds = %2
  %13 = load ptr, ptr %4, align 8, !tbaa !15
  %14 = getelementptr inbounds nuw %struct.strscanner, ptr %13, i32 0, i32 2
  %15 = load i64, ptr %14, align 8, !tbaa !26
  %16 = load i64, ptr %5, align 8, !tbaa !6
  %17 = add nsw i64 %15, %16
  store i64 %17, ptr %3, align 8
  br label %18

18:                                               ; preds = %12, %10
  %19 = load i64, ptr %3, align 8
  ret i64 %19
}

; Function Attrs: nounwind sspstrong uwtable
define internal void @adjust_registers_to_matched(ptr noundef %0) #0 {
  %2 = alloca ptr, align 8
  store ptr %0, ptr %2, align 8, !tbaa !15
  %3 = load ptr, ptr %2, align 8, !tbaa !15
  %4 = getelementptr inbounds nuw %struct.strscanner, ptr %3, i32 0, i32 4
  call void @onig_region_clear(ptr noundef %4)
  %5 = load ptr, ptr %2, align 8, !tbaa !15
  %6 = getelementptr inbounds nuw %struct.strscanner, ptr %5, i32 0, i32 6
  %7 = load i8, ptr %6, align 8, !tbaa !25, !range !41, !noundef !42
  %8 = trunc i8 %7 to i1
  br i1 %8, label %9, label %21

9:                                                ; preds = %1
  %10 = load ptr, ptr %2, align 8, !tbaa !15
  %11 = getelementptr inbounds nuw %struct.strscanner, ptr %10, i32 0, i32 4
  %12 = load ptr, ptr %2, align 8, !tbaa !15
  %13 = getelementptr inbounds nuw %struct.strscanner, ptr %12, i32 0, i32 2
  %14 = load i64, ptr %13, align 8, !tbaa !26
  %15 = trunc i64 %14 to i32
  %16 = load ptr, ptr %2, align 8, !tbaa !15
  %17 = getelementptr inbounds nuw %struct.strscanner, ptr %16, i32 0, i32 3
  %18 = load i64, ptr %17, align 8, !tbaa !27
  %19 = trunc i64 %18 to i32
  %20 = call i32 @onig_region_set(ptr noundef %11, i32 noundef 0, i32 noundef %15, i32 noundef %19)
  br label %33

21:                                               ; preds = %1
  %22 = load ptr, ptr %2, align 8, !tbaa !15
  %23 = getelementptr inbounds nuw %struct.strscanner, ptr %22, i32 0, i32 4
  %24 = load ptr, ptr %2, align 8, !tbaa !15
  %25 = getelementptr inbounds nuw %struct.strscanner, ptr %24, i32 0, i32 3
  %26 = load i64, ptr %25, align 8, !tbaa !27
  %27 = load ptr, ptr %2, align 8, !tbaa !15
  %28 = getelementptr inbounds nuw %struct.strscanner, ptr %27, i32 0, i32 2
  %29 = load i64, ptr %28, align 8, !tbaa !26
  %30 = sub nsw i64 %26, %29
  %31 = trunc i64 %30 to i32
  %32 = call i32 @onig_region_set(ptr noundef %23, i32 noundef 0, i32 noundef 0, i32 noundef %31)
  br label %33

33:                                               ; preds = %21, %9
  ret void
}

; Function Attrs: inlinehint nounwind sspstrong uwtable
define internal i64 @minl(i64 noundef %0, i64 noundef %1) #4 {
  %3 = alloca i64, align 8
  %4 = alloca i64, align 8
  store i64 %0, ptr %3, align 8, !tbaa !6
  store i64 %1, ptr %4, align 8, !tbaa !6
  %5 = load i64, ptr %3, align 8, !tbaa !6
  %6 = load i64, ptr %4, align 8, !tbaa !6
  %7 = icmp slt i64 %5, %6
  br i1 %7, label %8, label %10

8:                                                ; preds = %2
  %9 = load i64, ptr %3, align 8, !tbaa !6
  br label %12

10:                                               ; preds = %2
  %11 = load i64, ptr %4, align 8, !tbaa !6
  br label %12

12:                                               ; preds = %10, %8
  %13 = phi i64 [ %9, %8 ], [ %11, %10 ]
  ret i64 %13
}

; Function Attrs: inlinehint nounwind sspstrong uwtable
define internal ptr @RSTRING_PTR(i64 noundef %0) #4 {
  %2 = alloca i64, align 8
  %3 = alloca ptr, align 8
  %4 = alloca %struct.RString, align 8
  store i64 %0, ptr %2, align 8, !tbaa !6
  call void @llvm.lifetime.start.p0(i64 8, ptr %3) #23
  %5 = load i64, ptr %2, align 8, !tbaa !6
  call void @rbimpl_rstring_getmem(ptr dead_on_unwind writable sret(%struct.RString) align 8 %4, i64 noundef %5) #29
  %6 = getelementptr inbounds nuw %struct.RString, ptr %4, i32 0, i32 2
  %7 = getelementptr inbounds nuw %struct.anon.0, ptr %6, i32 0, i32 0
  %8 = load ptr, ptr %7, align 8, !tbaa !31
  store ptr %8, ptr %3, align 8, !tbaa !12
  %9 = load ptr, ptr %3, align 8, !tbaa !12
  call void @llvm.lifetime.end.p0(i64 8, ptr %3) #23
  ret ptr %9
}

; Function Attrs: inlinehint nounwind sspstrong willreturn memory(read) uwtable
define internal i64 @RSTRING_LEN(i64 noundef %0) #11 {
  %2 = alloca i64, align 8
  store i64 %0, ptr %2, align 8, !tbaa !6
  %3 = load i64, ptr %2, align 8, !tbaa !6
  %4 = inttoptr i64 %3 to ptr
  %5 = getelementptr inbounds nuw %struct.RString, ptr %4, i32 0, i32 1
  %6 = load i64, ptr %5, align 8, !tbaa !35
  ret i64 %6
}

; Function Attrs: inlinehint nounwind sspstrong willreturn memory(none) uwtable
define internal zeroext i1 @RB_NIL_P(i64 noundef %0) #7 {
  %2 = alloca i64, align 8
  store i64 %0, ptr %2, align 8, !tbaa !6
  %3 = load i64, ptr %2, align 8, !tbaa !6
  %4 = icmp eq i64 %3, 4
  ret i1 %4
}

; Function Attrs: nounwind sspstrong uwtable
define internal ptr @check_strscan(i64 noundef %0) #0 {
  %2 = alloca i64, align 8
  store i64 %0, ptr %2, align 8, !tbaa !6
  %3 = load i64, ptr %2, align 8, !tbaa !6
  %4 = call ptr @rb_check_typeddata(i64 noundef %3, ptr noundef @strscanner_type)
  ret ptr %4
}

; Function Attrs: nounwind sspstrong uwtable
define internal i64 @strscan_getch(i64 noundef %0) #0 {
  %2 = alloca i64, align 8
  %3 = alloca i64, align 8
  %4 = alloca ptr, align 8
  %5 = alloca i64, align 8
  %6 = alloca i32, align 4
  store i64 %0, ptr %3, align 8, !tbaa !6
  call void @llvm.lifetime.start.p0(i64 8, ptr %4) #23
  call void @llvm.lifetime.start.p0(i64 8, ptr %5) #23
  br label %7

7:                                                ; preds = %1
  %8 = load i64, ptr %3, align 8, !tbaa !6
  %9 = call ptr @check_strscan(i64 noundef %8)
  store ptr %9, ptr %4, align 8, !tbaa !15
  %10 = load ptr, ptr %4, align 8, !tbaa !15
  %11 = getelementptr inbounds nuw %struct.strscanner, ptr %10, i32 0, i32 1
  %12 = load i64, ptr %11, align 8, !tbaa !22
  %13 = call zeroext i1 @RB_NIL_P(i64 noundef %12) #24
  br i1 %13, label %14, label %16

14:                                               ; preds = %7
  %15 = load i64, ptr @rb_eArgError, align 8, !tbaa !6
  call void (i64, ptr, ...) @rb_raise(i64 noundef %15, ptr noundef @.str.66) #27
  unreachable

16:                                               ; preds = %7
  br label %17

17:                                               ; preds = %16
  br label %18

18:                                               ; preds = %17
  %19 = load ptr, ptr %4, align 8, !tbaa !15
  %20 = getelementptr inbounds nuw %struct.strscanner, ptr %19, i32 0, i32 0
  %21 = load i64, ptr %20, align 8, !tbaa !17
  %22 = and i64 %21, -2
  store i64 %22, ptr %20, align 8, !tbaa !17
  %23 = load ptr, ptr %4, align 8, !tbaa !15
  %24 = getelementptr inbounds nuw %struct.strscanner, ptr %23, i32 0, i32 3
  %25 = load i64, ptr %24, align 8, !tbaa !27
  %26 = load ptr, ptr %4, align 8, !tbaa !15
  %27 = getelementptr inbounds nuw %struct.strscanner, ptr %26, i32 0, i32 1
  %28 = load i64, ptr %27, align 8, !tbaa !22
  %29 = call i64 @RSTRING_LEN(i64 noundef %28) #28
  %30 = icmp sge i64 %25, %29
  br i1 %30, label %31, label %32

31:                                               ; preds = %18
  store i64 4, ptr %2, align 8
  store i32 1, ptr %6, align 4
  br label %99

32:                                               ; preds = %18
  %33 = load ptr, ptr %4, align 8, !tbaa !15
  %34 = getelementptr inbounds nuw %struct.strscanner, ptr %33, i32 0, i32 1
  %35 = load i64, ptr %34, align 8, !tbaa !22
  %36 = call ptr @RSTRING_PTR(i64 noundef %35)
  %37 = load ptr, ptr %4, align 8, !tbaa !15
  %38 = getelementptr inbounds nuw %struct.strscanner, ptr %37, i32 0, i32 3
  %39 = load i64, ptr %38, align 8, !tbaa !27
  %40 = getelementptr inbounds i8, ptr %36, i64 %39
  %41 = load ptr, ptr %4, align 8, !tbaa !15
  %42 = getelementptr inbounds nuw %struct.strscanner, ptr %41, i32 0, i32 1
  %43 = load i64, ptr %42, align 8, !tbaa !22
  %44 = call ptr @RSTRING_PTR(i64 noundef %43)
  %45 = load ptr, ptr %4, align 8, !tbaa !15
  %46 = getelementptr inbounds nuw %struct.strscanner, ptr %45, i32 0, i32 1
  %47 = load i64, ptr %46, align 8, !tbaa !22
  %48 = call i64 @RSTRING_LEN(i64 noundef %47) #28
  %49 = getelementptr inbounds i8, ptr %44, i64 %48
  %50 = load ptr, ptr %4, align 8, !tbaa !15
  %51 = getelementptr inbounds nuw %struct.strscanner, ptr %50, i32 0, i32 1
  %52 = load i64, ptr %51, align 8, !tbaa !22
  %53 = call ptr @rb_enc_get(i64 noundef %52)
  %54 = call i32 @rb_enc_mbclen(ptr noundef %40, ptr noundef %49, ptr noundef %53)
  %55 = sext i32 %54 to i64
  store i64 %55, ptr %5, align 8, !tbaa !6
  %56 = load i64, ptr %5, align 8, !tbaa !6
  %57 = load ptr, ptr %4, align 8, !tbaa !15
  %58 = getelementptr inbounds nuw %struct.strscanner, ptr %57, i32 0, i32 1
  %59 = load i64, ptr %58, align 8, !tbaa !22
  %60 = call i64 @RSTRING_LEN(i64 noundef %59) #28
  %61 = load ptr, ptr %4, align 8, !tbaa !15
  %62 = getelementptr inbounds nuw %struct.strscanner, ptr %61, i32 0, i32 3
  %63 = load i64, ptr %62, align 8, !tbaa !27
  %64 = sub nsw i64 %60, %63
  %65 = call i64 @minl(i64 noundef %56, i64 noundef %64)
  store i64 %65, ptr %5, align 8, !tbaa !6
  %66 = load ptr, ptr %4, align 8, !tbaa !15
  %67 = getelementptr inbounds nuw %struct.strscanner, ptr %66, i32 0, i32 3
  %68 = load i64, ptr %67, align 8, !tbaa !27
  %69 = load ptr, ptr %4, align 8, !tbaa !15
  %70 = getelementptr inbounds nuw %struct.strscanner, ptr %69, i32 0, i32 2
  store i64 %68, ptr %70, align 8, !tbaa !26
  %71 = load i64, ptr %5, align 8, !tbaa !6
  %72 = load ptr, ptr %4, align 8, !tbaa !15
  %73 = getelementptr inbounds nuw %struct.strscanner, ptr %72, i32 0, i32 3
  %74 = load i64, ptr %73, align 8, !tbaa !27
  %75 = add nsw i64 %74, %71
  store i64 %75, ptr %73, align 8, !tbaa !27
  %76 = load ptr, ptr %4, align 8, !tbaa !15
  %77 = getelementptr inbounds nuw %struct.strscanner, ptr %76, i32 0, i32 0
  %78 = load i64, ptr %77, align 8, !tbaa !17
  %79 = or i64 %78, 1
  store i64 %79, ptr %77, align 8, !tbaa !17
  %80 = load ptr, ptr %4, align 8, !tbaa !15
  call void @adjust_registers_to_matched(ptr noundef %80)
  %81 = load ptr, ptr %4, align 8, !tbaa !15
  %82 = load ptr, ptr %4, align 8, !tbaa !15
  %83 = load ptr, ptr %4, align 8, !tbaa !15
  %84 = getelementptr inbounds nuw %struct.strscanner, ptr %83, i32 0, i32 4
  %85 = getelementptr inbounds nuw %struct.re_registers, ptr %84, i32 0, i32 2
  %86 = load ptr, ptr %85, align 8, !tbaa !29
  %87 = getelementptr inbounds i64, ptr %86, i64 0
  %88 = load i64, ptr %87, align 8, !tbaa !6
  %89 = call i64 @adjust_register_position(ptr noundef %82, i64 noundef %88)
  %90 = load ptr, ptr %4, align 8, !tbaa !15
  %91 = load ptr, ptr %4, align 8, !tbaa !15
  %92 = getelementptr inbounds nuw %struct.strscanner, ptr %91, i32 0, i32 4
  %93 = getelementptr inbounds nuw %struct.re_registers, ptr %92, i32 0, i32 3
  %94 = load ptr, ptr %93, align 8, !tbaa !30
  %95 = getelementptr inbounds i64, ptr %94, i64 0
  %96 = load i64, ptr %95, align 8, !tbaa !6
  %97 = call i64 @adjust_register_position(ptr noundef %90, i64 noundef %96)
  %98 = call i64 @extract_range(ptr noundef %81, i64 noundef %89, i64 noundef %97)
  store i64 %98, ptr %2, align 8
  store i32 1, ptr %6, align 4
  br label %99

99:                                               ; preds = %32, %31
  call void @llvm.lifetime.end.p0(i64 8, ptr %5) #23
  call void @llvm.lifetime.end.p0(i64 8, ptr %4) #23
  %100 = load i64, ptr %2, align 8
  ret i64 %100
}