; Function Attrs: nounwind sspstrong uwtable
define internal noundef i64 @strscan_getch(i64 noundef %0) #0 {
  %2 = tail call ptr @rb_check_typeddata(i64 noundef %0, ptr noundef nonnull @strscanner_type) #12
  %3 = getelementptr inbounds nuw i8, ptr %2, i64 8
  %4 = load i64, ptr %3, align 8, !tbaa !23
  %5 = icmp eq i64 %4, 4
  br i1 %5, label %6, label %8

6:                                                ; preds = %1
  %7 = load i64, ptr @rb_eArgError, align 8, !tbaa !10
  tail call void (i64, ptr, ...) @rb_raise(i64 noundef %7, ptr noundef nonnull @.str.66) #14
  unreachable

8:                                                ; preds = %1
  %9 = load i64, ptr %2, align 8, !tbaa !18
  %10 = and i64 %9, -2
  store i64 %10, ptr %2, align 8, !tbaa !18
  %11 = getelementptr inbounds nuw i8, ptr %2, i64 24
  %12 = load i64, ptr %11, align 8, !tbaa !29
  %13 = inttoptr i64 %4 to ptr
  %14 = getelementptr inbounds nuw i8, ptr %13, i64 16
  %15 = load i64, ptr %14, align 8, !tbaa !32
  %.not = icmp slt i64 %12, %15
  br i1 %.not, label %16, label %extract_range.exit

16:                                               ; preds = %8
  %17 = load i64, ptr %13, align 8, !tbaa !34, !noalias !38
  %18 = and i64 %17, 8192
  %.not.i.i = icmp eq i64 %18, 0
  %19 = getelementptr inbounds nuw i8, ptr %13, i64 24
  br i1 %.not.i.i, label %RSTRING_PTR.exit27, label %20

20:                                               ; preds = %16
  %.sroa.2.0.copyload.i = load ptr, ptr %19, align 8
  br label %RSTRING_PTR.exit27

RSTRING_PTR.exit27:                               ; preds = %16, %20
  %.sroa.2.0.i26 = phi ptr [ %.sroa.2.0.copyload.i, %20 ], [ %19, %16 ]
  %21 = getelementptr inbounds i8, ptr %.sroa.2.0.i26, i64 %12
  %22 = getelementptr inbounds i8, ptr %.sroa.2.0.i26, i64 %15
  %23 = tail call ptr @rb_enc_get(i64 noundef %4) #12
  %24 = tail call i32 @rb_enc_mbclen(ptr noundef %21, ptr noundef %22, ptr noundef %23) #12
  %25 = sext i32 %24 to i64
  %26 = load i64, ptr %3, align 8, !tbaa !23
  %27 = inttoptr i64 %26 to ptr
  %28 = getelementptr inbounds nuw i8, ptr %27, i64 16
  %29 = load i64, ptr %28, align 8, !tbaa !32
  %30 = load i64, ptr %11, align 8, !tbaa !29
  %31 = sub nsw i64 %29, %30
  %32 = tail call noundef i64 @llvm.smin.i64(i64 %25, i64 %31)
  %33 = getelementptr inbounds nuw i8, ptr %2, i64 16
  store i64 %30, ptr %33, align 8, !tbaa !28
  %34 = add nsw i64 %32, %30
  store i64 %34, ptr %11, align 8, !tbaa !29
  %35 = load i64, ptr %2, align 8, !tbaa !18
  %36 = or i64 %35, 1
  store i64 %36, ptr %2, align 8, !tbaa !18
  %37 = getelementptr inbounds nuw i8, ptr %2, i64 32
  tail call void @onig_region_clear(ptr noundef nonnull %37) #12
  %38 = getelementptr inbounds nuw i8, ptr %2, i64 64
  %39 = load i8, ptr %38, align 8, !tbaa !27, !range !41, !noundef !42
  %40 = trunc nuw i8 %39 to i1
  br i1 %40, label %41, label %45

41:                                               ; preds = %RSTRING_PTR.exit27
  %42 = load i64, ptr %33, align 8, !tbaa !28
  %43 = trunc i64 %42 to i32
  %44 = load i64, ptr %11, align 8, !tbaa !29
  br label %adjust_registers_to_matched.exit

45:                                               ; preds = %RSTRING_PTR.exit27
  %46 = load i64, ptr %11, align 8, !tbaa !29
  %47 = load i64, ptr %33, align 8, !tbaa !28
  %48 = sub nsw i64 %46, %47
  br label %adjust_registers_to_matched.exit

adjust_registers_to_matched.exit:                 ; preds = %41, %45
  %.sink9.i = phi i64 [ %48, %45 ], [ %44, %41 ]
  %.sink.i = phi i32 [ 0, %45 ], [ %43, %41 ]
  %49 = trunc i64 %.sink9.i to i32
  %50 = tail call i32 @onig_region_set(ptr noundef nonnull %37, i32 noundef 0, i32 noundef %.sink.i, i32 noundef %49) #12
  %51 = getelementptr inbounds nuw i8, ptr %2, i64 40
  %52 = load ptr, ptr %51, align 8, !tbaa !43
  %53 = load i64, ptr %52, align 8, !tbaa !10
  %54 = load i8, ptr %38, align 8, !tbaa !27, !range !41, !noundef !42
  %55 = trunc nuw i8 %54 to i1
  br i1 %55, label %adjust_register_position.exit.thread, label %59

adjust_register_position.exit.thread:             ; preds = %adjust_registers_to_matched.exit
  %56 = getelementptr inbounds nuw i8, ptr %2, i64 48
  %57 = load ptr, ptr %56, align 8, !tbaa !44
  %58 = load i64, ptr %57, align 8, !tbaa !10
  br label %adjust_register_position.exit29

59:                                               ; preds = %adjust_registers_to_matched.exit
  %60 = load i64, ptr %33, align 8, !tbaa !28
  %61 = add nsw i64 %60, %53
  %62 = getelementptr inbounds nuw i8, ptr %2, i64 48
  %63 = load ptr, ptr %62, align 8, !tbaa !44
  %64 = load i64, ptr %63, align 8, !tbaa !10
  %65 = add nsw i64 %64, %60
  br label %adjust_register_position.exit29

adjust_register_position.exit29:                  ; preds = %adjust_register_position.exit.thread, %59
  %.0.i33 = phi i64 [ %61, %59 ], [ %53, %adjust_register_position.exit.thread ]
  %.0.i28 = phi i64 [ %65, %59 ], [ %58, %adjust_register_position.exit.thread ]
  %66 = load i64, ptr %3, align 8, !tbaa !23
  %67 = inttoptr i64 %66 to ptr
  %68 = getelementptr inbounds nuw i8, ptr %67, i64 16
  %69 = load i64, ptr %68, align 8, !tbaa !32
  %70 = icmp sgt i64 %.0.i33, %69
  br i1 %70, label %extract_range.exit, label %71

71:                                               ; preds = %adjust_register_position.exit29
  %72 = tail call noundef i64 @llvm.smin.i64(i64 %.0.i28, i64 %69)
  %73 = load i64, ptr %67, align 8, !tbaa !34, !noalias !45
  %74 = and i64 %73, 8192
  %.not.i.i.i = icmp eq i64 %74, 0
  %75 = getelementptr inbounds nuw i8, ptr %67, i64 24
  br i1 %.not.i.i.i, label %RSTRING_PTR.exit.i, label %76

76:                                               ; preds = %71
  %.sroa.2.0.copyload.i.i = load ptr, ptr %75, align 8
  br label %RSTRING_PTR.exit.i

RSTRING_PTR.exit.i:                               ; preds = %76, %71
  %.sroa.2.0.i.i = phi ptr [ %.sroa.2.0.copyload.i.i, %76 ], [ %75, %71 ]
  %77 = getelementptr inbounds i8, ptr %.sroa.2.0.i.i, i64 %.0.i33
  %78 = sub nsw i64 %72, %.0.i33
  %79 = tail call i64 @rb_str_new(ptr noundef %77, i64 noundef %78) #12
  %80 = load i64, ptr %3, align 8, !tbaa !23
  tail call void @rb_enc_copy(i64 noundef %79, i64 noundef %80) #12
  br label %extract_range.exit

extract_range.exit:                               ; preds = %RSTRING_PTR.exit.i, %adjust_register_position.exit29, %8
  %.0 = phi i64 [ 4, %8 ], [ %79, %RSTRING_PTR.exit.i ], [ 4, %adjust_register_position.exit29 ]
  ret i64 %.0
}